; Function Attrs: null_pointer_is_valid sspstrong uwtable
define internal void @post_update_someip_eventgroup_cb() #0 {
  %1 = load ptr, ptr @data_someip_eventgroups, align 8
  %.not.i = icmp eq ptr %1, null
  br i1 %.not.i, label %reset_someip_eventgroup_cb.exit, label %2

2:                                                ; preds = %0
  tail call void @g_hash_table_destroy(ptr noundef nonnull %1)
  store ptr null, ptr @data_someip_eventgroups, align 8
  br label %reset_someip_eventgroup_cb.exit

reset_someip_eventgroup_cb.exit:                  ; preds = %0, %2
  %3 = tail call ptr @g_hash_table_new_full(ptr noundef nonnull @g_direct_hash, ptr noundef nonnull @g_direct_equal, ptr noundef null, ptr noundef null)
  store ptr %3, ptr @data_someip_eventgroups, align 8
  %4 = load i32, ptr @someip_eventgroup_ident_num, align 4
  %.not = icmp eq i32 %4, 0
  br i1 %.not, label %._crit_edge, label %.lr.ph

._crit_edge:                                      ; preds = %.lr.ph, %reset_someip_eventgroup_cb.exit
  ret void

.lr.ph:                                           ; preds = %reset_someip_eventgroup_cb.exit, %.lr.ph
  %indvars.iv = phi i64 [ %indvars.iv.next, %.lr.ph ], [ 0, %reset_someip_eventgroup_cb.exit ]
  %5 = load ptr, ptr @someip_eventgroup_ident, align 8
  %6 = getelementptr %struct._generic_two_id_string, ptr %5, i64 %indvars.iv
  %7 = load i32, ptr %6, align 8
  %8 = shl i32 %7, 16
  %9 = getelementptr inbounds nuw i8, ptr %6, i64 4
  %10 = load i32, ptr %9, align 4
  %11 = and i32 %10, 65535
  %12 = or disjoint i32 %11, %8
  %13 = load ptr, ptr @data_someip_eventgroups, align 8
  %14 = zext i32 %12 to i64
  %15 = inttoptr i64 %14 to ptr
  %16 = getelementptr inbounds nuw i8, ptr %6, i64 8
  %17 = load ptr, ptr %16, align 8
  %18 = tail call i32 @g_hash_table_insert(ptr noundef %13, ptr noundef %15, ptr noundef %17)
  %indvars.iv.next = add nuw nsw i64 %indvars.iv, 1
  %19 = load i32, ptr @someip_eventgroup_ident_num, align 4
  %20 = zext i32 %19 to i64
  %21 = icmp samesign ult i64 %indvars.iv.next, %20
  br i1 %21, label %.lr.ph, label %._crit_edge, !llvm.loop !12
}